; Function Attrs: mustprogress uwtable
define internal fastcc void @_ZN5arrow12_GLOBAL__N_113PrettyPrinter9OpenArrayERKNS_5ArrayE(ptr noundef nonnull align 8 captures(none) dereferenceable(24) %0, ptr noundef nonnull readonly align 8 captures(none) dereferenceable(32) %1) unnamed_addr #4 align 2 {
  %3 = load ptr, ptr %0, align 8, !tbaa !221
  %4 = getelementptr inbounds nuw i8, ptr %3, i64 48
  %5 = load i8, ptr %4, align 8, !tbaa !45, !range !99, !noundef !100
  %6 = trunc nuw i8 %5 to i1
  br i1 %6, label %_ZN5arrow12_GLOBAL__N_113PrettyPrinter6IndentEv.exit, label %7

7:                                                ; preds = %2
  %8 = getelementptr inbounds nuw i8, ptr %0, i64 8
  %9 = load i32, ptr %8, align 8, !tbaa !58
  %10 = icmp sgt i32 %9, 0
  br i1 %10, label %.lr.ph.i, label %_ZN5arrow12_GLOBAL__N_113PrettyPrinter6IndentEv.exit

.lr.ph.i:                                         ; preds = %7
  %11 = getelementptr inbounds nuw i8, ptr %0, i64 16
  br label %12

12:                                               ; preds = %12, %.lr.ph.i
  %.02.i = phi i32 [ 0, %.lr.ph.i ], [ %15, %12 ]
  %13 = load ptr, ptr %11, align 8, !tbaa !61
  %14 = tail call noundef nonnull align 8 dereferenceable(8) ptr @_ZSt16__ostream_insertIcSt11char_traitsIcEERSt13basic_ostreamIT_T0_ES6_PKS3_l(ptr noundef nonnull align 8 dereferenceable(8) %13, ptr noundef nonnull @.str, i64 noundef 1)
  %15 = add nuw nsw i32 %.02.i, 1
  %16 = load i32, ptr %8, align 8, !tbaa !58
  %17 = icmp slt i32 %15, %16
  br i1 %17, label %12, label %_ZN5arrow12_GLOBAL__N_113PrettyPrinter6IndentEv.exit.loopexit, !llvm.loop !222

_ZN5arrow12_GLOBAL__N_113PrettyPrinter6IndentEv.exit.loopexit: ; preds = %12
  %.pre = load ptr, ptr %0, align 8, !tbaa !221
  br label %_ZN5arrow12_GLOBAL__N_113PrettyPrinter6IndentEv.exit

_ZN5arrow12_GLOBAL__N_113PrettyPrinter6IndentEv.exit: ; preds = %_ZN5arrow12_GLOBAL__N_113PrettyPrinter6IndentEv.exit.loopexit, %7, %2
  %18 = phi ptr [ %.pre, %_ZN5arrow12_GLOBAL__N_113PrettyPrinter6IndentEv.exit.loopexit ], [ %3, %7 ], [ %3, %2 ]
  %19 = getelementptr inbounds nuw i8, ptr %0, i64 16
  %20 = load ptr, ptr %19, align 8, !tbaa !61
  %21 = getelementptr inbounds nuw i8, ptr %18, i64 56
  %22 = load ptr, ptr %21, align 8, !tbaa !107
  %23 = getelementptr inbounds nuw i8, ptr %18, i64 64
  %24 = load i64, ptr %23, align 8, !tbaa !43
  %25 = tail call noundef nonnull align 8 dereferenceable(8) ptr @_ZSt16__ostream_insertIcSt11char_traitsIcEERSt13basic_ostreamIT_T0_ES6_PKS3_l(ptr noundef nonnull align 8 dereferenceable(8) %20, ptr noundef %22, i64 noundef %24)
  %26 = getelementptr inbounds nuw i8, ptr %1, i64 8
  %27 = load ptr, ptr %26, align 8, !tbaa !62
  %28 = getelementptr inbounds nuw i8, ptr %27, i64 16
  %29 = load i64, ptr %28, align 8, !tbaa !242
  %30 = icmp sgt i64 %29, 0
  br i1 %30, label %31, label %42

31:                                               ; preds = %_ZN5arrow12_GLOBAL__N_113PrettyPrinter6IndentEv.exit
  %.val = load ptr, ptr %0, align 8, !tbaa !221
  %32 = getelementptr i8, ptr %.val, i64 48
  %.val.val = load i8, ptr %32, align 8, !tbaa !45, !range !99, !noundef !100
  %33 = trunc nuw i8 %.val.val to i1
  br i1 %33, label %_ZN5arrow12_GLOBAL__N_113PrettyPrinter7NewlineEv.exit, label %34

34:                                               ; preds = %31
  %.val2 = load ptr, ptr %19, align 8
  %35 = tail call noundef nonnull align 8 dereferenceable(8) ptr @_ZSt16__ostream_insertIcSt11char_traitsIcEERSt13basic_ostreamIT_T0_ES6_PKS3_l(ptr noundef nonnull align 8 dereferenceable(8) %.val2, ptr noundef nonnull @.str.1, i64 noundef 1)
  %.pre3 = load ptr, ptr %0, align 8, !tbaa !221
  br label %_ZN5arrow12_GLOBAL__N_113PrettyPrinter7NewlineEv.exit

_ZN5arrow12_GLOBAL__N_113PrettyPrinter7NewlineEv.exit: ; preds = %31, %34
  %36 = phi ptr [ %.val, %31 ], [ %.pre3, %34 ]
  %37 = getelementptr inbounds nuw i8, ptr %36, i64 4
  %38 = load i32, ptr %37, align 4, !tbaa !32
  %39 = getelementptr inbounds nuw i8, ptr %0, i64 8
  %40 = load i32, ptr %39, align 8, !tbaa !58
  %41 = add nsw i32 %40, %38
  store i32 %41, ptr %39, align 8, !tbaa !58
  br label %42

42:                                               ; preds = %_ZN5arrow12_GLOBAL__N_113PrettyPrinter7NewlineEv.exit, %_ZN5arrow12_GLOBAL__N_113PrettyPrinter6IndentEv.exit
  ret void
}